target datalayout = "e-m:e-p270:32:32-p271:32:32-p272:64:64-i64:64-i128:128-f80:128-n8:16:32:64-S128"
target triple = "x86_64-pc-linux-gnu"

%struct._GSList = type { ptr, ptr }
%struct._GPtrArray = type { ptr, i32 }
%struct.ws_iana_ip_special_block = type { i32, %union.anon, ptr, i32, i32, i32, i32, i32 }
%union.anon = type { %struct.ipv6_addr_and_prefix }
%struct.ipv6_addr_and_prefix = type { %struct.e_in6_addr, i32 }
%struct.e_in6_addr = type { [16 x i8] }
%struct.ipv4_addr_and_mask = type { i32, i32 }

@.str.2 = private unnamed_addr constant [1 x i8] zeroinitializer, align 1
@.str.3 = private unnamed_addr constant [37 x i8] c"plugins/epan/dfilter/ipaddr/ipaddr.c\00", align 1
@__func__.lookup_block = private unnamed_addr constant [13 x i8] c"lookup_block\00", align 1
@.str.4 = private unnamed_addr constant [31 x i8] c"assertion \22not reached\22 failed\00", align 1

; Function Attrs: null_pointer_is_valid sspstrong uwtable
define internal ptr @lookup_block(ptr noundef %0) #0 {
  %2 = alloca ptr, align 8
  %3 = alloca ptr, align 8
  store ptr %0, ptr %3, align 8
  %4 = load ptr, ptr %3, align 8
  %5 = call i32 @fvalue_type_ftenum(ptr noundef %4)
  switch i32 %5, label %17 [
    i32 32, label %6
    i32 33, label %12
  ]

6:                                                ; preds = %1
  %7 = load ptr, ptr %3, align 8
  %8 = call ptr @fvalue_get_ipv4(ptr noundef %7)
  %9 = getelementptr inbounds nuw %struct.ipv4_addr_and_mask, ptr %8, i32 0, i32 0
  %10 = load i32, ptr %9, align 4
  %11 = call ptr @ws_iana_ipv4_special_block_lookup(i32 noundef %10)
  store ptr %11, ptr %2, align 8
  br label %19

12:                                               ; preds = %1
  %13 = load ptr, ptr %3, align 8
  %14 = call ptr @fvalue_get_ipv6(ptr noundef %13)
  %15 = getelementptr inbounds nuw %struct.ipv6_addr_and_prefix, ptr %14, i32 0, i32 0
  %16 = call ptr @ws_iana_ipv6_special_block_lookup(ptr noundef %15)
  store ptr %16, ptr %2, align 8
  br label %19

17:                                               ; preds = %1
  br label %18

18:                                               ; preds = %17
  call void (ptr, i32, ptr, i64, ptr, ptr, ...) @ws_log_fatal_full(ptr noundef @.str.2, i32 noundef 7, ptr noundef @.str.3, i64 noundef 43, ptr noundef @__func__.lookup_block, ptr noundef @.str.4) #9
  unreachable

19:                                               ; preds = %12, %6
  %20 = load ptr, ptr %2, align 8
  ret ptr %20
}

; Function Attrs: null_pointer_is_valid sspstrong uwtable
define internal zeroext i1 @df_func_ip_special_mask(ptr noundef %0, i32 noundef %1, ptr noundef %2) #0 {
  %4 = alloca i1, align 1
  %5 = alloca ptr, align 8
  %6 = alloca i32, align 4
  %7 = alloca ptr, align 8
  %8 = alloca ptr, align 8
  %9 = alloca ptr, align 8
  %10 = alloca ptr, align 8
  %11 = alloca i32, align 4
  %12 = alloca i32, align 4
  %13 = alloca i32, align 4
  store ptr %0, ptr %5, align 8
  store i32 %1, ptr %6, align 4
  store ptr %2, ptr %7, align 8
  call void @llvm.lifetime.start.p0(i64 8, ptr %8) #8
  call void @llvm.lifetime.start.p0(i64 8, ptr %9) #8
  call void @llvm.lifetime.start.p0(i64 8, ptr %10) #8
  call void @llvm.lifetime.start.p0(i64 4, ptr %11) #8
  br label %14

14:                                               ; preds = %3
  br label %15

15:                                               ; preds = %14
  br label %16

16:                                               ; preds = %15
  %17 = load ptr, ptr %5, align 8
  %18 = getelementptr inbounds nuw %struct._GSList, ptr %17, i32 0, i32 0
  %19 = load ptr, ptr %18, align 8
  store ptr %19, ptr %8, align 8
  %20 = load ptr, ptr %8, align 8
  %21 = icmp eq ptr %20, null
  br i1 %21, label %22, label %23

22:                                               ; preds = %16
  store i1 false, ptr %4, align 1
  store i32 1, ptr %12, align 4
  br label %106

23:                                               ; preds = %16
  call void @llvm.lifetime.start.p0(i64 4, ptr %13) #8
  store i32 0, ptr %13, align 4
  br label %24

24:                                               ; preds = %99, %23
  %25 = load i32, ptr %13, align 4
  %26 = load ptr, ptr %8, align 8
  %27 = getelementptr inbounds nuw %struct._GPtrArray, ptr %26, i32 0, i32 1
  %28 = load i32, ptr %27, align 8
  %29 = icmp ult i32 %25, %28
  br i1 %29, label %31, label %30

30:                                               ; preds = %24
  store i32 4, ptr %12, align 4
  call void @llvm.lifetime.end.p0(i64 4, ptr %13) #8
  br label %102

31:                                               ; preds = %24
  %32 = load ptr, ptr %8, align 8
  %33 = getelementptr inbounds nuw %struct._GPtrArray, ptr %32, i32 0, i32 0
  %34 = load ptr, ptr %33, align 8
  %35 = load i32, ptr %13, align 4
  %36 = zext i32 %35 to i64
  %37 = getelementptr ptr, ptr %34, i64 %36
  %38 = load ptr, ptr %37, align 8
  %39 = call ptr @lookup_block(ptr noundef %38)
  store ptr %39, ptr %10, align 8
  %40 = load ptr, ptr %10, align 8
  %41 = icmp eq ptr %40, null
  br i1 %41, label %42, label %43

42:                                               ; preds = %31
  br label %99

43:                                               ; preds = %31
  store i32 0, ptr %11, align 4
  %44 = load ptr, ptr %10, align 8
  %45 = getelementptr inbounds nuw %struct.ws_iana_ip_special_block, ptr %44, i32 0, i32 7
  %46 = load i32, ptr %45, align 8
  %47 = icmp sgt i32 %46, 0
  br i1 %47, label %48, label %53

48:                                               ; preds = %43
  %49 = load i32, ptr %11, align 4
  %50 = zext i32 %49 to i64
  %51 = or i64 %50, 1
  %52 = trunc i64 %51 to i32
  store i32 %52, ptr %11, align 4
  br label %53

53:                                               ; preds = %48, %43
  %54 = load ptr, ptr %10, align 8
  %55 = getelementptr inbounds nuw %struct.ws_iana_ip_special_block, ptr %54, i32 0, i32 6
  %56 = load i32, ptr %55, align 4
  %57 = icmp sgt i32 %56, 0
  br i1 %57, label %58, label %63

58:                                               ; preds = %53
  %59 = load i32, ptr %11, align 4
  %60 = zext i32 %59 to i64
  %61 = or i64 %60, 2
  %62 = trunc i64 %61 to i32
  store i32 %62, ptr %11, align 4
  br label %63

63:                                               ; preds = %58, %53
  %64 = load ptr, ptr %10, align 8
  %65 = getelementptr inbounds nuw %struct.ws_iana_ip_special_block, ptr %64, i32 0, i32 5
  %66 = load i32, ptr %65, align 8
  %67 = icmp sgt i32 %66, 0
  br i1 %67, label %68, label %73

68:                                               ; preds = %63
  %69 = load i32, ptr %11, align 4
  %70 = zext i32 %69 to i64
  %71 = or i64 %70, 4
  %72 = trunc i64 %71 to i32
  store i32 %72, ptr %11, align 4
  br label %73

73:                                               ; preds = %68, %63
  %74 = load ptr, ptr %10, align 8
  %75 = getelementptr inbounds nuw %struct.ws_iana_ip_special_block, ptr %74, i32 0, i32 4
  %76 = load i32, ptr %75, align 4
  %77 = icmp sgt i32 %76, 0
  br i1 %77, label %78, label %83

78:                                               ; preds = %73
  %79 = load i32, ptr %11, align 4
  %80 = zext i32 %79 to i64
  %81 = or i64 %80, 8
  %82 = trunc i64 %81 to i32
  store i32 %82, ptr %11, align 4
  br label %83

83:                                               ; preds = %78, %73
  %84 = load ptr, ptr %10, align 8
  %85 = getelementptr inbounds nuw %struct.ws_iana_ip_special_block, ptr %84, i32 0, i32 3
  %86 = load i32, ptr %85, align 8
  %87 = icmp sgt i32 %86, 0
  br i1 %87, label %88, label %93

88:                                               ; preds = %83
  %89 = load i32, ptr %11, align 4
  %90 = zext i32 %89 to i64
  %91 = or i64 %90, 16
  %92 = trunc i64 %91 to i32
  store i32 %92, ptr %11, align 4
  br label %93

93:                                               ; preds = %88, %83
  %94 = call ptr @fvalue_new(i32 noundef 7)
  store ptr %94, ptr %9, align 8
  %95 = load ptr, ptr %9, align 8
  %96 = load i32, ptr %11, align 4
  call void @fvalue_set_uinteger(ptr noundef %95, i32 noundef %96)
  %97 = load ptr, ptr %7, align 8
  %98 = load ptr, ptr %9, align 8
  call void @df_cell_append(ptr noundef %97, ptr noundef %98)
  br label %99

99:                                               ; preds = %93, %42
  %100 = load i32, ptr %13, align 4
  %101 = add i32 %100, 1
  store i32 %101, ptr %13, align 4
  br label %24, !llvm.loop !10

102:                                              ; preds = %30
  %103 = load ptr, ptr %7, align 8
  %104 = call zeroext i1 @df_cell_is_empty(ptr noundef %103)
  %105 = xor i1 %104, true
  store i1 %105, ptr %4, align 1
  store i32 1, ptr %12, align 4
  br label %106

106:                                              ; preds = %102, %22
  call void @llvm.lifetime.end.p0(i64 4, ptr %11) #8
  call void @llvm.lifetime.end.p0(i64 8, ptr %10) #8
  call void @llvm.lifetime.end.p0(i64 8, ptr %9) #8
  call void @llvm.lifetime.end.p0(i64 8, ptr %8) #8
  %107 = load i1, ptr %4, align 1
  ret i1 %107
}