; Function Attrs: null_pointer_is_valid sspstrong uwtable
define internal zeroext i1 @df_func_ip_special_mask(ptr noundef readonly captures(none) %0, i32 %1, ptr noundef %2) #0 {
  %4 = load ptr, ptr %0, align 8
  %5 = icmp eq ptr %4, null
  br i1 %5, label %48, label %.preheader

.preheader:                                       ; preds = %3
  %6 = getelementptr inbounds nuw i8, ptr %4, i64 8
  %7 = load i32, ptr %6, align 8
  %.not = icmp eq i32 %7, 0
  br i1 %.not, label %._crit_edge, label %.lr.ph

._crit_edge:                                      ; preds = %44, %.preheader
  %8 = tail call zeroext i1 @df_cell_is_empty(ptr noundef %2)
  %9 = xor i1 %8, true
  br label %48

.lr.ph:                                           ; preds = %.preheader, %44
  %indvars.iv = phi i64 [ %indvars.iv.next, %44 ], [ 0, %.preheader ]
  %10 = load ptr, ptr %4, align 8
  %11 = getelementptr ptr, ptr %10, i64 %indvars.iv
  %12 = load ptr, ptr %11, align 8
  %13 = tail call i32 @fvalue_type_ftenum(ptr noundef %12)
  switch i32 %13, label %21 [
    i32 32, label %14
    i32 33, label %18
  ]

14:                                               ; preds = %.lr.ph
  %15 = tail call ptr @fvalue_get_ipv4(ptr noundef %12)
  %16 = load i32, ptr %15, align 4
  %17 = tail call ptr @ws_iana_ipv4_special_block_lookup(i32 noundef %16)
  br label %lookup_block.exit

18:                                               ; preds = %.lr.ph
  %19 = tail call ptr @fvalue_get_ipv6(ptr noundef %12)
  %20 = tail call ptr @ws_iana_ipv6_special_block_lookup(ptr noundef %19)
  br label %lookup_block.exit

21:                                               ; preds = %.lr.ph
  tail call void (ptr, i32, ptr, i64, ptr, ptr, ...) @ws_log_fatal_full(ptr noundef nonnull @.str.2, i32 noundef 7, ptr noundef nonnull @.str.3, i64 noundef 43, ptr noundef nonnull @__func__.lookup_block, ptr noundef nonnull @.str.4) #7
  unreachable

lookup_block.exit:                                ; preds = %14, %18
  %.0.i = phi ptr [ %20, %18 ], [ %17, %14 ]
  %22 = icmp eq ptr %.0.i, null
  br i1 %22, label %44, label %23

23:                                               ; preds = %lookup_block.exit
  %24 = getelementptr inbounds nuw i8, ptr %.0.i, i64 48
  %25 = load i32, ptr %24, align 8
  %26 = icmp sgt i32 %25, 0
  %spec.select = zext i1 %26 to i32
  %27 = getelementptr inbounds nuw i8, ptr %.0.i, i64 44
  %28 = load i32, ptr %27, align 4
  %29 = icmp sgt i32 %28, 0
  %30 = or disjoint i32 %spec.select, 2
  %.1 = select i1 %29, i32 %30, i32 %spec.select
  %31 = getelementptr inbounds nuw i8, ptr %.0.i, i64 40
  %32 = load i32, ptr %31, align 8
  %33 = icmp sgt i32 %32, 0
  %34 = or disjoint i32 %.1, 4
  %.2 = select i1 %33, i32 %34, i32 %.1
  %35 = getelementptr inbounds nuw i8, ptr %.0.i, i64 36
  %36 = load i32, ptr %35, align 4
  %37 = icmp sgt i32 %36, 0
  %38 = or disjoint i32 %.2, 8
  %.3 = select i1 %37, i32 %38, i32 %.2
  %39 = getelementptr inbounds nuw i8, ptr %.0.i, i64 32
  %40 = load i32, ptr %39, align 8
  %41 = icmp sgt i32 %40, 0
  %42 = or i32 %.3, 16
  %.4 = select i1 %41, i32 %42, i32 %.3
  %43 = tail call ptr @fvalue_new(i32 noundef 7)
  tail call void @fvalue_set_uinteger(ptr noundef %43, i32 noundef %.4)
  tail call void @df_cell_append(ptr noundef %2, ptr noundef %43)
  br label %44

44:                                               ; preds = %lookup_block.exit, %23
  %indvars.iv.next = add nuw nsw i64 %indvars.iv, 1
  %45 = load i32, ptr %6, align 8
  %46 = zext i32 %45 to i64
  %47 = icmp samesign ult i64 %indvars.iv.next, %46
  br i1 %47, label %.lr.ph, label %._crit_edge, !llvm.loop !10

48:                                               ; preds = %3, %._crit_edge
  %.024 = phi i1 [ %9, %._crit_edge ], [ false, %3 ]
  ret i1 %.024
}